target datalayout = "e-m:e-p270:32:32-p271:32:32-p272:64:64-i64:64-i128:128-f80:128-n8:16:32:64-S128"
target triple = "x86_64-unknown-linux-gnu"

%struct.QEnumLookup = type { ptr, ptr, i32 }
%struct.q_obj_block_stream_arg = type { ptr, ptr, ptr, ptr, ptr, ptr, i8, i64, i8, i32, ptr, i8, i8, i8, i8 }

@.str.103 = private unnamed_addr constant [7 x i8] c"device\00", align 1
@BlockdevOnError_lookup = external constant %struct.QEnumLookup, align 8
@.str.180 = private unnamed_addr constant [6 x i8] c"speed\00", align 1
@.str.183 = private unnamed_addr constant [14 x i8] c"auto-finalize\00", align 1
@.str.184 = private unnamed_addr constant [13 x i8] c"auto-dismiss\00", align 1
@.str.195 = private unnamed_addr constant [7 x i8] c"job-id\00", align 1
@.str.202 = private unnamed_addr constant [17 x i8] c"filter-node-name\00", align 1
@.str.206 = private unnamed_addr constant [13 x i8] c"backing-file\00", align 1
@.str.207 = private unnamed_addr constant [10 x i8] c"base-node\00", align 1
@.str.208 = private unnamed_addr constant [5 x i8] c"base\00", align 1
@.str.211 = private unnamed_addr constant [9 x i8] c"on-error\00", align 1
@.str.267 = private unnamed_addr constant [7 x i8] c"bottom\00", align 1

; Function Attrs: nounwind sspstrong uwtable
define dso_local zeroext i1 @visit_type_BlockdevOnError(ptr noundef %v, ptr noundef %name, ptr noundef %obj, ptr noundef %errp) #0 {
entry:
  %v.addr = alloca ptr, align 8
  %name.addr = alloca ptr, align 8
  %obj.addr = alloca ptr, align 8
  %errp.addr = alloca ptr, align 8
  %value = alloca i32, align 4
  %ok = alloca i8, align 1
  store ptr %v, ptr %v.addr, align 8
  store ptr %name, ptr %name.addr, align 8
  store ptr %obj, ptr %obj.addr, align 8
  store ptr %errp, ptr %errp.addr, align 8
  %0 = load ptr, ptr %obj.addr, align 8
  %1 = load i32, ptr %0, align 4
  store i32 %1, ptr %value, align 4
  %2 = load ptr, ptr %v.addr, align 8
  %3 = load ptr, ptr %name.addr, align 8
  %4 = load ptr, ptr %errp.addr, align 8
  %call = call zeroext i1 @visit_type_enum(ptr noundef %2, ptr noundef %3, ptr noundef %value, ptr noundef @BlockdevOnError_lookup, ptr noundef %4)
  %frombool = zext i1 %call to i8
  store i8 %frombool, ptr %ok, align 1
  %5 = load i32, ptr %value, align 4
  %6 = load ptr, ptr %obj.addr, align 8
  store i32 %5, ptr %6, align 4
  %7 = load i8, ptr %ok, align 1
  %tobool = trunc i8 %7 to i1
  ret i1 %tobool
}

; Function Attrs: nounwind sspstrong uwtable
define dso_local zeroext i1 @visit_type_q_obj_block_stream_arg_members(ptr noundef %v, ptr noundef %obj, ptr noundef %errp) #0 {
entry:
  %retval = alloca i1, align 1
  %v.addr = alloca ptr, align 8
  %obj.addr = alloca ptr, align 8
  %errp.addr = alloca ptr, align 8
  %has_job_id = alloca i8, align 1
  %has_base = alloca i8, align 1
  %has_base_node = alloca i8, align 1
  %has_backing_file = alloca i8, align 1
  %has_bottom = alloca i8, align 1
  %has_filter_node_name = alloca i8, align 1
  store ptr %v, ptr %v.addr, align 8
  store ptr %obj, ptr %obj.addr, align 8
  store ptr %errp, ptr %errp.addr, align 8
  %0 = load ptr, ptr %obj.addr, align 8
  %job_id = getelementptr inbounds %struct.q_obj_block_stream_arg, ptr %0, i32 0, i32 0
  %1 = load ptr, ptr %job_id, align 8
  %tobool = icmp ne ptr %1, null
  %lnot = xor i1 %tobool, true
  %lnot1 = xor i1 %lnot, true
  %frombool = zext i1 %lnot1 to i8
  store i8 %frombool, ptr %has_job_id, align 1
  %2 = load ptr, ptr %obj.addr, align 8
  %base = getelementptr inbounds %struct.q_obj_block_stream_arg, ptr %2, i32 0, i32 2
  %3 = load ptr, ptr %base, align 8
  %tobool2 = icmp ne ptr %3, null
  %lnot3 = xor i1 %tobool2, true
  %lnot4 = xor i1 %lnot3, true
  %frombool5 = zext i1 %lnot4 to i8
  store i8 %frombool5, ptr %has_base, align 1
  %4 = load ptr, ptr %obj.addr, align 8
  %base_node = getelementptr inbounds %struct.q_obj_block_stream_arg, ptr %4, i32 0, i32 3
  %5 = load ptr, ptr %base_node, align 8
  %tobool6 = icmp ne ptr %5, null
  %lnot7 = xor i1 %tobool6, true
  %lnot8 = xor i1 %lnot7, true
  %frombool9 = zext i1 %lnot8 to i8
  store i8 %frombool9, ptr %has_base_node, align 1
  %6 = load ptr, ptr %obj.addr, align 8
  %backing_file = getelementptr inbounds %struct.q_obj_block_stream_arg, ptr %6, i32 0, i32 4
  %7 = load ptr, ptr %backing_file, align 8
  %tobool10 = icmp ne ptr %7, null
  %lnot11 = xor i1 %tobool10, true
  %lnot12 = xor i1 %lnot11, true
  %frombool13 = zext i1 %lnot12 to i8
  store i8 %frombool13, ptr %has_backing_file, align 1
  %8 = load ptr, ptr %obj.addr, align 8
  %bottom = getelementptr inbounds %struct.q_obj_block_stream_arg, ptr %8, i32 0, i32 5
  %9 = load ptr, ptr %bottom, align 8
  %tobool14 = icmp ne ptr %9, null
  %lnot15 = xor i1 %tobool14, true
  %lnot16 = xor i1 %lnot15, true
  %frombool17 = zext i1 %lnot16 to i8
  store i8 %frombool17, ptr %has_bottom, align 1
  %10 = load ptr, ptr %obj.addr, align 8
  %filter_node_name = getelementptr inbounds %struct.q_obj_block_stream_arg, ptr %10, i32 0, i32 10
  %11 = load ptr, ptr %filter_node_name, align 8
  %tobool18 = icmp ne ptr %11, null
  %lnot19 = xor i1 %tobool18, true
  %lnot20 = xor i1 %lnot19, true
  %frombool21 = zext i1 %lnot20 to i8
  store i8 %frombool21, ptr %has_filter_node_name, align 1
  %12 = load ptr, ptr %v.addr, align 8
  %call = call zeroext i1 @visit_optional(ptr noundef %12, ptr noundef @.str.195, ptr noundef %has_job_id)
  br i1 %call, label %if.then, label %if.end25

if.then:                                          ; preds = %entry
  %13 = load ptr, ptr %v.addr, align 8
  %14 = load ptr, ptr %obj.addr, align 8
  %job_id22 = getelementptr inbounds %struct.q_obj_block_stream_arg, ptr %14, i32 0, i32 0
  %15 = load ptr, ptr %errp.addr, align 8
  %call23 = call zeroext i1 @visit_type_str(ptr noundef %13, ptr noundef @.str.195, ptr noundef %job_id22, ptr noundef %15)
  br i1 %call23, label %if.end, label %if.then24

if.then24:                                        ; preds = %if.then
  store i1 false, ptr %retval, align 1
  br label %return

if.end:                                           ; preds = %if.then
  br label %if.end25

if.end25:                                         ; preds = %if.end, %entry
  %16 = load ptr, ptr %v.addr, align 8
  %17 = load ptr, ptr %obj.addr, align 8
  %device = getelementptr inbounds %struct.q_obj_block_stream_arg, ptr %17, i32 0, i32 1
  %18 = load ptr, ptr %errp.addr, align 8
  %call26 = call zeroext i1 @visit_type_str(ptr noundef %16, ptr noundef @.str.103, ptr noundef %device, ptr noundef %18)
  br i1 %call26, label %if.end28, label %if.then27

if.then27:                                        ; preds = %if.end25
  store i1 false, ptr %retval, align 1
  br label %return

if.end28:                                         ; preds = %if.end25
  %19 = load ptr, ptr %v.addr, align 8
  %call29 = call zeroext i1 @visit_optional(ptr noundef %19, ptr noundef @.str.208, ptr noundef %has_base)
  br i1 %call29, label %if.then30, label %if.end35

if.then30:                                        ; preds = %if.end28
  %20 = load ptr, ptr %v.addr, align 8
  %21 = load ptr, ptr %obj.addr, align 8
  %base31 = getelementptr inbounds %struct.q_obj_block_stream_arg, ptr %21, i32 0, i32 2
  %22 = load ptr, ptr %errp.addr, align 8
  %call32 = call zeroext i1 @visit_type_str(ptr noundef %20, ptr noundef @.str.208, ptr noundef %base31, ptr noundef %22)
  br i1 %call32, label %if.end34, label %if.then33

if.then33:                                        ; preds = %if.then30
  store i1 false, ptr %retval, align 1
  br label %return

if.end34:                                         ; preds = %if.then30
  br label %if.end35

if.end35:                                         ; preds = %if.end34, %if.end28
  %23 = load ptr, ptr %v.addr, align 8
  %call36 = call zeroext i1 @visit_optional(ptr noundef %23, ptr noundef @.str.207, ptr noundef %has_base_node)
  br i1 %call36, label %if.then37, label %if.end42

if.then37:                                        ; preds = %if.end35
  %24 = load ptr, ptr %v.addr, align 8
  %25 = load ptr, ptr %obj.addr, align 8
  %base_node38 = getelementptr inbounds %struct.q_obj_block_stream_arg, ptr %25, i32 0, i32 3
  %26 = load ptr, ptr %errp.addr, align 8
  %call39 = call zeroext i1 @visit_type_str(ptr noundef %24, ptr noundef @.str.207, ptr noundef %base_node38, ptr noundef %26)
  br i1 %call39, label %if.end41, label %if.then40

if.then40:                                        ; preds = %if.then37
  store i1 false, ptr %retval, align 1
  br label %return

if.end41:                                         ; preds = %if.then37
  br label %if.end42

if.end42:                                         ; preds = %if.end41, %if.end35
  %27 = load ptr, ptr %v.addr, align 8
  %call43 = call zeroext i1 @visit_optional(ptr noundef %27, ptr noundef @.str.206, ptr noundef %has_backing_file)
  br i1 %call43, label %if.then44, label %if.end49

if.then44:                                        ; preds = %if.end42
  %28 = load ptr, ptr %v.addr, align 8
  %29 = load ptr, ptr %obj.addr, align 8
  %backing_file45 = getelementptr inbounds %struct.q_obj_block_stream_arg, ptr %29, i32 0, i32 4
  %30 = load ptr, ptr %errp.addr, align 8
  %call46 = call zeroext i1 @visit_type_str(ptr noundef %28, ptr noundef @.str.206, ptr noundef %backing_file45, ptr noundef %30)
  br i1 %call46, label %if.end48, label %if.then47

if.then47:                                        ; preds = %if.then44
  store i1 false, ptr %retval, align 1
  br label %return

if.end48:                                         ; preds = %if.then44
  br label %if.end49

if.end49:                                         ; preds = %if.end48, %if.end42
  %31 = load ptr, ptr %v.addr, align 8
  %call50 = call zeroext i1 @visit_optional(ptr noundef %31, ptr noundef @.str.267, ptr noundef %has_bottom)
  br i1 %call50, label %if.then51, label %if.end56

if.then51:                                        ; preds = %if.end49
  %32 = load ptr, ptr %v.addr, align 8
  %33 = load ptr, ptr %obj.addr, align 8
  %bottom52 = getelementptr inbounds %struct.q_obj_block_stream_arg, ptr %33, i32 0, i32 5
  %34 = load ptr, ptr %errp.addr, align 8
  %call53 = call zeroext i1 @visit_type_str(ptr noundef %32, ptr noundef @.str.267, ptr noundef %bottom52, ptr noundef %34)
  br i1 %call53, label %if.end55, label %if.then54

if.then54:                                        ; preds = %if.then51
  store i1 false, ptr %retval, align 1
  br label %return

if.end55:                                         ; preds = %if.then51
  br label %if.end56

if.end56:                                         ; preds = %if.end55, %if.end49
  %35 = load ptr, ptr %v.addr, align 8
  %36 = load ptr, ptr %obj.addr, align 8
  %has_speed = getelementptr inbounds %struct.q_obj_block_stream_arg, ptr %36, i32 0, i32 6
  %call57 = call zeroext i1 @visit_optional(ptr noundef %35, ptr noundef @.str.180, ptr noundef %has_speed)
  br i1 %call57, label %if.then58, label %if.end62

if.then58:                                        ; preds = %if.end56
  %37 = load ptr, ptr %v.addr, align 8
  %38 = load ptr, ptr %obj.addr, align 8
  %speed = getelementptr inbounds %struct.q_obj_block_stream_arg, ptr %38, i32 0, i32 7
  %39 = load ptr, ptr %errp.addr, align 8
  %call59 = call zeroext i1 @visit_type_int(ptr noundef %37, ptr noundef @.str.180, ptr noundef %speed, ptr noundef %39)
  br i1 %call59, label %if.end61, label %if.then60

if.then60:                                        ; preds = %if.then58
  store i1 false, ptr %retval, align 1
  br label %return

if.end61:                                         ; preds = %if.then58
  br label %if.end62

if.end62:                                         ; preds = %if.end61, %if.end56
  %40 = load ptr, ptr %v.addr, align 8
  %41 = load ptr, ptr %obj.addr, align 8
  %has_on_error = getelementptr inbounds %struct.q_obj_block_stream_arg, ptr %41, i32 0, i32 8
  %call63 = call zeroext i1 @visit_optional(ptr noundef %40, ptr noundef @.str.211, ptr noundef %has_on_error)
  br i1 %call63, label %if.then64, label %if.end68

if.then64:                                        ; preds = %if.end62
  %42 = load ptr, ptr %v.addr, align 8
  %43 = load ptr, ptr %obj.addr, align 8
  %on_error = getelementptr inbounds %struct.q_obj_block_stream_arg, ptr %43, i32 0, i32 9
  %44 = load ptr, ptr %errp.addr, align 8
  %call65 = call zeroext i1 @visit_type_BlockdevOnError(ptr noundef %42, ptr noundef @.str.211, ptr noundef %on_error, ptr noundef %44)
  br i1 %call65, label %if.end67, label %if.then66

if.then66:                                        ; preds = %if.then64
  store i1 false, ptr %retval, align 1
  br label %return

if.end67:                                         ; preds = %if.then64
  br label %if.end68

if.end68:                                         ; preds = %if.end67, %if.end62
  %45 = load ptr, ptr %v.addr, align 8
  %call69 = call zeroext i1 @visit_optional(ptr noundef %45, ptr noundef @.str.202, ptr noundef %has_filter_node_name)
  br i1 %call69, label %if.then70, label %if.end75

if.then70:                                        ; preds = %if.end68
  %46 = load ptr, ptr %v.addr, align 8
  %47 = load ptr, ptr %obj.addr, align 8
  %filter_node_name71 = getelementptr inbounds %struct.q_obj_block_stream_arg, ptr %47, i32 0, i32 10
  %48 = load ptr, ptr %errp.addr, align 8
  %call72 = call zeroext i1 @visit_type_str(ptr noundef %46, ptr noundef @.str.202, ptr noundef %filter_node_name71, ptr noundef %48)
  br i1 %call72, label %if.end74, label %if.then73

if.then73:                                        ; preds = %if.then70
  store i1 false, ptr %retval, align 1
  br label %return

if.end74:                                         ; preds = %if.then70
  br label %if.end75

if.end75:                                         ; preds = %if.end74, %if.end68
  %49 = load ptr, ptr %v.addr, align 8
  %50 = load ptr, ptr %obj.addr, align 8
  %has_auto_finalize = getelementptr inbounds %struct.q_obj_block_stream_arg, ptr %50, i32 0, i32 11
  %call76 = call zeroext i1 @visit_optional(ptr noundef %49, ptr noundef @.str.183, ptr noundef %has_auto_finalize)
  br i1 %call76, label %if.then77, label %if.end81

if.then77:                                        ; preds = %if.end75
  %51 = load ptr, ptr %v.addr, align 8
  %52 = load ptr, ptr %obj.addr, align 8
  %auto_finalize = getelementptr inbounds %struct.q_obj_block_stream_arg, ptr %52, i32 0, i32 12
  %53 = load ptr, ptr %errp.addr, align 8
  %call78 = call zeroext i1 @visit_type_bool(ptr noundef %51, ptr noundef @.str.183, ptr noundef %auto_finalize, ptr noundef %53)
  br i1 %call78, label %if.end80, label %if.then79

if.then79:                                        ; preds = %if.then77
  store i1 false, ptr %retval, align 1
  br label %return

if.end80:                                         ; preds = %if.then77
  br label %if.end81

if.end81:                                         ; preds = %if.end80, %if.end75
  %54 = load ptr, ptr %v.addr, align 8
  %55 = load ptr, ptr %obj.addr, align 8
  %has_auto_dismiss = getelementptr inbounds %struct.q_obj_block_stream_arg, ptr %55, i32 0, i32 13
  %call82 = call zeroext i1 @visit_optional(ptr noundef %54, ptr noundef @.str.184, ptr noundef %has_auto_dismiss)
  br i1 %call82, label %if.then83, label %if.end87

if.then83:                                        ; preds = %if.end81
  %56 = load ptr, ptr %v.addr, align 8
  %57 = load ptr, ptr %obj.addr, align 8
  %auto_dismiss = getelementptr inbounds %struct.q_obj_block_stream_arg, ptr %57, i32 0, i32 14
  %58 = load ptr, ptr %errp.addr, align 8
  %call84 = call zeroext i1 @visit_type_bool(ptr noundef %56, ptr noundef @.str.184, ptr noundef %auto_dismiss, ptr noundef %58)
  br i1 %call84, label %if.end86, label %if.then85

if.then85:                                        ; preds = %if.then83
  store i1 false, ptr %retval, align 1
  br label %return

if.end86:                                         ; preds = %if.then83
  br label %if.end87

if.end87:                                         ; preds = %if.end86, %if.end81
  store i1 true, ptr %retval, align 1
  br label %return

return:                                           ; preds = %if.end87, %if.then85, %if.then79, %if.then73, %if.then66, %if.then60, %if.then54, %if.then47, %if.then40, %if.then33, %if.then27, %if.then24
  %59 = load i1, ptr %retval, align 1
  ret i1 %59
}