; Function Attrs: nounwind sspstrong uwtable
define dso_local noundef zeroext i1 @visit_type_q_obj_block_stream_arg_members(ptr noundef %v, ptr noundef %obj, ptr noundef %errp) local_unnamed_addr #0 {
entry:
  %value.i = alloca i32, align 4
  %has_job_id = alloca i8, align 1
  %has_base = alloca i8, align 1
  %has_base_node = alloca i8, align 1
  %has_backing_file = alloca i8, align 1
  %has_bottom = alloca i8, align 1
  %has_filter_node_name = alloca i8, align 1
  %0 = load ptr, ptr %obj, align 8
  %tobool = icmp ne ptr %0, null
  %frombool = zext i1 %tobool to i8
  store i8 %frombool, ptr %has_job_id, align 1
  %base = getelementptr inbounds nuw i8, ptr %obj, i64 16
  %1 = load ptr, ptr %base, align 8
  %tobool2 = icmp ne ptr %1, null
  %frombool5 = zext i1 %tobool2 to i8
  store i8 %frombool5, ptr %has_base, align 1
  %base_node = getelementptr inbounds nuw i8, ptr %obj, i64 24
  %2 = load ptr, ptr %base_node, align 8
  %tobool6 = icmp ne ptr %2, null
  %frombool9 = zext i1 %tobool6 to i8
  store i8 %frombool9, ptr %has_base_node, align 1
  %backing_file = getelementptr inbounds nuw i8, ptr %obj, i64 32
  %3 = load ptr, ptr %backing_file, align 8
  %tobool10 = icmp ne ptr %3, null
  %frombool13 = zext i1 %tobool10 to i8
  store i8 %frombool13, ptr %has_backing_file, align 1
  %bottom = getelementptr inbounds nuw i8, ptr %obj, i64 40
  %4 = load ptr, ptr %bottom, align 8
  %tobool14 = icmp ne ptr %4, null
  %frombool17 = zext i1 %tobool14 to i8
  store i8 %frombool17, ptr %has_bottom, align 1
  %filter_node_name = getelementptr inbounds nuw i8, ptr %obj, i64 72
  %5 = load ptr, ptr %filter_node_name, align 8
  %tobool18 = icmp ne ptr %5, null
  %frombool21 = zext i1 %tobool18 to i8
  store i8 %frombool21, ptr %has_filter_node_name, align 1
  %call = call zeroext i1 @visit_optional(ptr noundef %v, ptr noundef nonnull @.str.195, ptr noundef nonnull %has_job_id) #5
  br i1 %call, label %if.then, label %if.end25

if.then:                                          ; preds = %entry
  %call23 = call zeroext i1 @visit_type_str(ptr noundef %v, ptr noundef nonnull @.str.195, ptr noundef nonnull %obj, ptr noundef %errp) #5
  br i1 %call23, label %if.end25, label %return

if.end25:                                         ; preds = %if.then, %entry
  %device = getelementptr inbounds nuw i8, ptr %obj, i64 8
  %call26 = call zeroext i1 @visit_type_str(ptr noundef %v, ptr noundef nonnull @.str.103, ptr noundef nonnull %device, ptr noundef %errp) #5
  br i1 %call26, label %if.end28, label %return

if.end28:                                         ; preds = %if.end25
  %call29 = call zeroext i1 @visit_optional(ptr noundef %v, ptr noundef nonnull @.str.208, ptr noundef nonnull %has_base) #5
  br i1 %call29, label %if.then30, label %if.end35

if.then30:                                        ; preds = %if.end28
  %call32 = call zeroext i1 @visit_type_str(ptr noundef %v, ptr noundef nonnull @.str.208, ptr noundef nonnull %base, ptr noundef %errp) #5
  br i1 %call32, label %if.end35, label %return

if.end35:                                         ; preds = %if.then30, %if.end28
  %call36 = call zeroext i1 @visit_optional(ptr noundef %v, ptr noundef nonnull @.str.207, ptr noundef nonnull %has_base_node) #5
  br i1 %call36, label %if.then37, label %if.end42

if.then37:                                        ; preds = %if.end35
  %call39 = call zeroext i1 @visit_type_str(ptr noundef %v, ptr noundef nonnull @.str.207, ptr noundef nonnull %base_node, ptr noundef %errp) #5
  br i1 %call39, label %if.end42, label %return

if.end42:                                         ; preds = %if.then37, %if.end35
  %call43 = call zeroext i1 @visit_optional(ptr noundef %v, ptr noundef nonnull @.str.206, ptr noundef nonnull %has_backing_file) #5
  br i1 %call43, label %if.then44, label %if.end49

if.then44:                                        ; preds = %if.end42
  %call46 = call zeroext i1 @visit_type_str(ptr noundef %v, ptr noundef nonnull @.str.206, ptr noundef nonnull %backing_file, ptr noundef %errp) #5
  br i1 %call46, label %if.end49, label %return

if.end49:                                         ; preds = %if.then44, %if.end42
  %call50 = call zeroext i1 @visit_optional(ptr noundef %v, ptr noundef nonnull @.str.267, ptr noundef nonnull %has_bottom) #5
  br i1 %call50, label %if.then51, label %if.end56

if.then51:                                        ; preds = %if.end49
  %call53 = call zeroext i1 @visit_type_str(ptr noundef %v, ptr noundef nonnull @.str.267, ptr noundef nonnull %bottom, ptr noundef %errp) #5
  br i1 %call53, label %if.end56, label %return

if.end56:                                         ; preds = %if.then51, %if.end49
  %has_speed = getelementptr inbounds nuw i8, ptr %obj, i64 48
  %call57 = call zeroext i1 @visit_optional(ptr noundef %v, ptr noundef nonnull @.str.180, ptr noundef nonnull %has_speed) #5
  br i1 %call57, label %if.then58, label %if.end62

if.then58:                                        ; preds = %if.end56
  %speed = getelementptr inbounds nuw i8, ptr %obj, i64 56
  %call59 = call zeroext i1 @visit_type_int(ptr noundef %v, ptr noundef nonnull @.str.180, ptr noundef nonnull %speed, ptr noundef %errp) #5
  br i1 %call59, label %if.end62, label %return

if.end62:                                         ; preds = %if.then58, %if.end56
  %has_on_error = getelementptr inbounds nuw i8, ptr %obj, i64 64
  %call63 = call zeroext i1 @visit_optional(ptr noundef %v, ptr noundef nonnull @.str.211, ptr noundef nonnull %has_on_error) #5
  br i1 %call63, label %if.then64, label %if.end68

if.then64:                                        ; preds = %if.end62
  %on_error = getelementptr inbounds nuw i8, ptr %obj, i64 68
  call void @llvm.lifetime.start.p0(i64 4, ptr nonnull %value.i)
  %6 = load i32, ptr %on_error, align 4
  store i32 %6, ptr %value.i, align 4
  %call.i = call zeroext i1 @visit_type_enum(ptr noundef %v, ptr noundef nonnull @.str.211, ptr noundef nonnull %value.i, ptr noundef nonnull @BlockdevOnError_lookup, ptr noundef %errp) #5
  %7 = load i32, ptr %value.i, align 4
  store i32 %7, ptr %on_error, align 4
  call void @llvm.lifetime.end.p0(i64 4, ptr nonnull %value.i)
  br i1 %call.i, label %if.end68, label %return

if.end68:                                         ; preds = %if.then64, %if.end62
  %call69 = call zeroext i1 @visit_optional(ptr noundef %v, ptr noundef nonnull @.str.202, ptr noundef nonnull %has_filter_node_name) #5
  br i1 %call69, label %if.then70, label %if.end75

if.then70:                                        ; preds = %if.end68
  %call72 = call zeroext i1 @visit_type_str(ptr noundef %v, ptr noundef nonnull @.str.202, ptr noundef nonnull %filter_node_name, ptr noundef %errp) #5
  br i1 %call72, label %if.end75, label %return

if.end75:                                         ; preds = %if.then70, %if.end68
  %has_auto_finalize = getelementptr inbounds nuw i8, ptr %obj, i64 80
  %call76 = call zeroext i1 @visit_optional(ptr noundef %v, ptr noundef nonnull @.str.183, ptr noundef nonnull %has_auto_finalize) #5
  br i1 %call76, label %if.then77, label %if.end81

if.then77:                                        ; preds = %if.end75
  %auto_finalize = getelementptr inbounds nuw i8, ptr %obj, i64 81
  %call78 = call zeroext i1 @visit_type_bool(ptr noundef %v, ptr noundef nonnull @.str.183, ptr noundef nonnull %auto_finalize, ptr noundef %errp) #5
  br i1 %call78, label %if.end81, label %return

if.end81:                                         ; preds = %if.then77, %if.end75
  %has_auto_dismiss = getelementptr inbounds nuw i8, ptr %obj, i64 82
  %call82 = call zeroext i1 @visit_optional(ptr noundef %v, ptr noundef nonnull @.str.184, ptr noundef nonnull %has_auto_dismiss) #5
  br i1 %call82, label %if.then83, label %if.end87

if.then83:                                        ; preds = %if.end81
  %auto_dismiss = getelementptr inbounds nuw i8, ptr %obj, i64 83
  %call84 = call zeroext i1 @visit_type_bool(ptr noundef %v, ptr noundef nonnull @.str.184, ptr noundef nonnull %auto_dismiss, ptr noundef %errp) #5
  br i1 %call84, label %if.end87, label %return

if.end87:                                         ; preds = %if.then83, %if.end81
  br label %return

return:                                           ; preds = %if.then83, %if.then77, %if.then70, %if.then64, %if.then58, %if.then51, %if.then44, %if.then37, %if.then30, %if.end25, %if.then, %if.end87
  %retval.0 = phi i1 [ true, %if.end87 ], [ false, %if.then ], [ false, %if.end25 ], [ false, %if.then30 ], [ false, %if.then37 ], [ false, %if.then44 ], [ false, %if.then51 ], [ false, %if.then58 ], [ false, %if.then64 ], [ false, %if.then70 ], [ false, %if.then77 ], [ false, %if.then83 ]
  ret i1 %retval.0
}